; ModuleID = '39/1660.c'
source_filename = "39/1660.c"
target datalayout = "e-m:e-p270:32:32-p271:32:32-p272:64:64-i64:64-f80:128-n8:16:32:64-S128"
target triple = "x86_64-pc-linux-gnu"

%struct.student = type { [21 x i8], i32, i32, i8, i8, i32 }

@.str = private unnamed_addr constant [3 x i8] c"%d\00", align 1
@.str.1 = private unnamed_addr constant [18 x i8] c"%s %d %d %c %c %d\00", align 1
@stu = common dso_local global [101 x %struct.student] zeroinitializer, align 16
@.str.2 = private unnamed_addr constant [10 x i8] c"%s\0A%d\0A%d\0A\00", align 1

; Function Attrs: noinline nounwind uwtable
define dso_local void @main() #0 {
  %1 = alloca i32, align 4
  %2 = alloca i32, align 4
  %3 = alloca [21 x i8], align 16
  %4 = alloca i32, align 4
  %5 = alloca [101 x i32], align 16
  %6 = alloca i32, align 4
  store i32 0, i32* %4, align 4
  store i32 0, i32* %6, align 4
  %7 = call i32 (i8*, ...) @__isoc99_scanf(i8* getelementptr inbounds ([3 x i8], [3 x i8]* @.str, i64 0, i64 0), i32* %1)
  store i32 0, i32* %2, align 4
  br label %8

8:                                                ; preds = %154, %0
  %9 = load i32, i32* %2, align 4
  %10 = load i32, i32* %1, align 4
  %11 = icmp slt i32 %9, %10
  br i1 %11, label %12, label %157

12:                                               ; preds = %8
  %13 = load i32, i32* %2, align 4
  %14 = sext i32 %13 to i64
  %15 = getelementptr inbounds [101 x i32], [101 x i32]* %5, i64 0, i64 %14
  store i32 0, i32* %15, align 4
  %16 = load i32, i32* %2, align 4
  %17 = sext i32 %16 to i64
  %18 = getelementptr inbounds [101 x %struct.student], [101 x %struct.student]* @stu, i64 0, i64 %17
  %19 = getelementptr inbounds %struct.student, %struct.student* %18, i32 0, i32 0
  %20 = load i32, i32* %2, align 4
  %21 = sext i32 %20 to i64
  %22 = getelementptr inbounds [101 x %struct.student], [101 x %struct.student]* @stu, i64 0, i64 %21
  %23 = getelementptr inbounds %struct.student, %struct.student* %22, i32 0, i32 1
  %24 = load i32, i32* %2, align 4
  %25 = sext i32 %24 to i64
  %26 = getelementptr inbounds [101 x %struct.student], [101 x %struct.student]* @stu, i64 0, i64 %25
  %27 = getelementptr inbounds %struct.student, %struct.student* %26, i32 0, i32 2
  %28 = load i32, i32* %2, align 4
  %29 = sext i32 %28 to i64
  %30 = getelementptr inbounds [101 x %struct.student], [101 x %struct.student]* @stu, i64 0, i64 %29
  %31 = getelementptr inbounds %struct.student, %struct.student* %30, i32 0, i32 3
  %32 = load i32, i32* %2, align 4
  %33 = sext i32 %32 to i64
  %34 = getelementptr inbounds [101 x %struct.student], [101 x %struct.student]* @stu, i64 0, i64 %33
  %35 = getelementptr inbounds %struct.student, %struct.student* %34, i32 0, i32 4
  %36 = load i32, i32* %2, align 4
  %37 = sext i32 %36 to i64
  %38 = getelementptr inbounds [101 x %struct.student], [101 x %struct.student]* @stu, i64 0, i64 %37
  %39 = getelementptr inbounds %struct.student, %struct.student* %38, i32 0, i32 5
  %40 = call i32 (i8*, ...) @__isoc99_scanf(i8* getelementptr inbounds ([18 x i8], [18 x i8]* @.str.1, i64 0, i64 0), [21 x i8]* %19, i32* %23, i32* %27, i8* %31, i8* %35, i32* %39)
  %41 = load i32, i32* %2, align 4
  %42 = sext i32 %41 to i64
  %43 = getelementptr inbounds [101 x %struct.student], [101 x %struct.student]* @stu, i64 0, i64 %42
  %44 = getelementptr inbounds %struct.student, %struct.student* %43, i32 0, i32 1
  %45 = load i32, i32* %44, align 8
  %46 = icmp sgt i32 %45, 80
  br i1 %46, label %47, label %60

47:                                               ; preds = %12
  %48 = load i32, i32* %2, align 4
  %49 = sext i32 %48 to i64
  %50 = getelementptr inbounds [101 x %struct.student], [101 x %struct.student]* @stu, i64 0, i64 %49
  %51 = getelementptr inbounds %struct.student, %struct.student* %50, i32 0, i32 5
  %52 = load i32, i32* %51, align 4
  %53 = icmp sgt i32 %52, 0
  br i1 %53, label %54, label %60

54:                                               ; preds = %47
  %55 = load i32, i32* %2, align 4
  %56 = sext i32 %55 to i64
  %57 = getelementptr inbounds [101 x i32], [101 x i32]* %5, i64 0, i64 %56
  %58 = load i32, i32* %57, align 4
  %59 = add nsw i32 %58, 8000
  store i32 %59, i32* %57, align 4
  br label %60

60:                                               ; preds = %54, %47, %12
  %61 = load i32, i32* %2, align 4
  %62 = sext i32 %61 to i64
  %63 = getelementptr inbounds [101 x %struct.student], [101 x %struct.student]* @stu, i64 0, i64 %62
  %64 = getelementptr inbounds %struct.student, %struct.student* %63, i32 0, i32 1
  %65 = load i32, i32* %64, align 8
  %66 = icmp sgt i32 %65, 85
  br i1 %66, label %67, label %80

67:                                               ; preds = %60
  %68 = load i32, i32* %2, align 4
  %69 = sext i32 %68 to i64
  %70 = getelementptr inbounds [101 x %struct.student], [101 x %struct.student]* @stu, i64 0, i64 %69
  %71 = getelementptr inbounds %struct.student, %struct.student* %70, i32 0, i32 2
  %72 = load i32, i32* %71, align 4
  %73 = icmp sgt i32 %72, 80
  br i1 %73, label %74, label %80

74:                                               ; preds = %67
  %75 = load i32, i32* %2, align 4
  %76 = sext i32 %75 to i64
  %77 = getelementptr inbounds [101 x i32], [101 x i32]* %5, i64 0, i64 %76
  %78 = load i32, i32* %77, align 4
  %79 = add nsw i32 %78, 4000
  store i32 %79, i32* %77, align 4
  br label %80

80:                                               ; preds = %74, %67, %60
  %81 = load i32, i32* %2, align 4
  %82 = sext i32 %81 to i64
  %83 = getelementptr inbounds [101 x %struct.student], [101 x %struct.student]* @stu, i64 0, i64 %82
  %84 = getelementptr inbounds %struct.student, %struct.student* %83, i32 0, i32 1
  %85 = load i32, i32* %84, align 8
  %86 = icmp sgt i32 %85, 90
  br i1 %86, label %87, label %93

87:                                               ; preds = %80
  %88 = load i32, i32* %2, align 4
  %89 = sext i32 %88 to i64
  %90 = getelementptr inbounds [101 x i32], [101 x i32]* %5, i64 0, i64 %89
  %91 = load i32, i32* %90, align 4
  %92 = add nsw i32 %91, 2000
  store i32 %92, i32* %90, align 4
  br label %93

93:                                               ; preds = %87, %80
  %94 = load i32, i32* %2, align 4
  %95 = sext i32 %94 to i64
  %96 = getelementptr inbounds [101 x %struct.student], [101 x %struct.student]* @stu, i64 0, i64 %95
  %97 = getelementptr inbounds %struct.student, %struct.student* %96, i32 0, i32 1
  %98 = load i32, i32* %97, align 8
  %99 = icmp sgt i32 %98, 85
  br i1 %99, label %100, label %114

100:                                              ; preds = %93
  %101 = load i32, i32* %2, align 4
  %102 = sext i32 %101 to i64
  %103 = getelementptr inbounds [101 x %struct.student], [101 x %struct.student]* @stu, i64 0, i64 %102
  %104 = getelementptr inbounds %struct.student, %struct.student* %103, i32 0, i32 4
  %105 = load i8, i8* %104, align 1
  %106 = sext i8 %105 to i32
  %107 = icmp eq i32 %106, 89
  br i1 %107, label %108, label %114

108:                                              ; preds = %100
  %109 = load i32, i32* %2, align 4
  %110 = sext i32 %109 to i64
  %111 = getelementptr inbounds [101 x i32], [101 x i32]* %5, i64 0, i64 %110
  %112 = load i32, i32* %111, align 4
  %113 = add nsw i32 %112, 1000
  store i32 %113, i32* %111, align 4
  br label %114

114:                                              ; preds = %108, %100, %93
  %115 = load i32, i32* %2, align 4
  %116 = sext i32 %115 to i64
  %117 = getelementptr inbounds [101 x %struct.student], [101 x %struct.student]* @stu, i64 0, i64 %116
  %118 = getelementptr inbounds %struct.student, %struct.student* %117, i32 0, i32 2
  %119 = load i32, i32* %118, align 4
  %120 = icmp sgt i32 %119, 80
  br i1 %120, label %121, label %135

121:                                              ; preds = %114
  %122 = load i32, i32* %2, align 4
  %123 = sext i32 %122 to i64
  %124 = getelementptr inbounds [101 x %struct.student], [101 x %struct.student]* @stu, i64 0, i64 %123
  %125 = getelementptr inbounds %struct.student, %struct.student* %124, i32 0, i32 3
  %126 = load i8, i8* %125, align 8
  %127 = sext i8 %126 to i32
  %128 = icmp eq i32 %127, 89
  br i1 %128, label %129, label %135

129:                                              ; preds = %121
  %130 = load i32, i32* %2, align 4
  %131 = sext i32 %130 to i64
  %132 = getelementptr inbounds [101 x i32], [101 x i32]* %5, i64 0, i64 %131
  %133 = load i32, i32* %132, align 4
  %134 = add nsw i32 %133, 850
  store i32 %134, i32* %132, align 4
  br label %135

135:                                              ; preds = %129, %121, %114
  %136 = load i32, i32* %2, align 4
  %137 = sext i32 %136 to i64
  %138 = getelementptr inbounds [101 x i32], [101 x i32]* %5, i64 0, i64 %137
  %139 = load i32, i32* %138, align 4
  %140 = load i32, i32* %4, align 4
  %141 = sext i32 %140 to i64
  %142 = getelementptr inbounds [101 x i32], [101 x i32]* %5, i64 0, i64 %141
  %143 = load i32, i32* %142, align 4
  %144 = icmp sgt i32 %139, %143
  br i1 %144, label %145, label %147

145:                                              ; preds = %135
  %146 = load i32, i32* %2, align 4
  store i32 %146, i32* %4, align 4
  br label %147

147:                                              ; preds = %145, %135
  %148 = load i32, i32* %2, align 4
  %149 = sext i32 %148 to i64
  %150 = getelementptr inbounds [101 x i32], [101 x i32]* %5, i64 0, i64 %149
  %151 = load i32, i32* %150, align 4
  %152 = load i32, i32* %6, align 4
  %153 = add nsw i32 %152, %151
  store i32 %153, i32* %6, align 4
  br label %154

154:                                              ; preds = %147
  %155 = load i32, i32* %2, align 4
  %156 = add nsw i32 %155, 1
  store i32 %156, i32* %2, align 4
  br label %8

157:                                              ; preds = %8
  %158 = load i32, i32* %4, align 4
  %159 = sext i32 %158 to i64
  %160 = getelementptr inbounds [101 x %struct.student], [101 x %struct.student]* @stu, i64 0, i64 %159
  %161 = getelementptr inbounds %struct.student, %struct.student* %160, i32 0, i32 0
  %162 = getelementptr inbounds [21 x i8], [21 x i8]* %161, i64 0, i64 0
  %163 = load i32, i32* %4, align 4
  %164 = sext i32 %163 to i64
  %165 = getelementptr inbounds [101 x i32], [101 x i32]* %5, i64 0, i64 %164
  %166 = load i32, i32* %165, align 4
  %167 = load i32, i32* %6, align 4
  %168 = call i32 (i8*, ...) @printf(i8* getelementptr inbounds ([10 x i8], [10 x i8]* @.str.2, i64 0, i64 0), i8* %162, i32 %166, i32 %167)
  ret void
}

declare dso_local i32 @__isoc99_scanf(i8*, ...) #1

declare dso_local i32 @printf(i8*, ...) #1


!llvm.module.flags = !{!0}
!llvm.ident = !{!1}

!0 = !{i32 1, !"wchar_size", i32 4}
!1 = !{!"clang version 10.0.0-4ubuntu1 "}
